EXPORTS
    A @1 DATA
    MyThreadFunction @2
    _Z5printRSt6vectorIS_IxSaIxEESaIS1_EE @3
    _Z6printfPKcz @4
    _Z7versionB5cxx11 @5 DATA
    _ZN9__gnu_cxx11char_traitsIcE2eqERKcS3_ @6
    _ZN9__gnu_cxx11char_traitsIcE6lengthEPKc @7
    _ZN9__gnu_cxx14__alloc_traitsISaIcEcE17_S_select_on_copyERKS1_ @8
    _ZN9__gnu_cxx17__normal_iteratorIPSt4pairIxxESt6vectorIS2_SaIS2_EEEC1ERKS3_ @9
    _ZN9__gnu_cxx17__normal_iteratorIPxSt6vectorIxSaIxEEEC1ERKS1_ @10
    _ZN9__gnu_cxxmiIPSt4pairIxxESt6vectorIS2_SaIS2_EEEENS_17__normal_iteratorIT_T0_E15difference_typeERKSA_SD_ @11
    _ZN9__gnu_cxxmiIPxSt6vectorIxSaIxEEEENS_17__normal_iteratorIT_T0_E15difference_typeERKS8_SB_ @12
    _ZNK9__gnu_cxx17__normal_iteratorIPSt4pairIxxESt6vectorIS2_SaIS2_EEE4baseEv @13
    _ZNK9__gnu_cxx17__normal_iteratorIPxSt6vectorIxSaIxEEE4baseEv @14
    _ZNKSt12_Vector_baseISt4pairIS0_IxxES1_ESaIS2_EE19_M_get_Tp_allocatorEv @15
    _ZNKSt12_Vector_baseISt4pairIxxESaIS1_EE19_M_get_Tp_allocatorEv @16
    _ZNKSt12_Vector_baseISt6vectorIxSaIxEESaIS2_EE19_M_get_Tp_allocatorEv @17
    _ZNKSt12_Vector_baseIxSaIxEE19_M_get_Tp_allocatorEv @18
    _ZNKSt13move_iteratorIPSt4pairIxxEE4baseEv @19
    _ZNKSt13move_iteratorIPSt4pairIxxEEdeEv @20
    _ZNKSt13move_iteratorIPxE4baseEv @21
    _ZNKSt15__new_allocatorISt4pairIS0_IxxES1_EE11_M_max_sizeEv @22
    _ZNKSt15__new_allocatorISt4pairIS0_IxxES1_EE8max_sizeEv @23
    _ZNKSt15__new_allocatorISt4pairIxxEE11_M_max_sizeEv @24
    _ZNKSt15__new_allocatorISt4pairIxxEE8max_sizeEv @25
    _ZNKSt15__new_allocatorISt6vectorIxSaIxEEE11_M_max_sizeEv @26
    _ZNKSt15__new_allocatorISt6vectorIxSaIxEEE8max_sizeEv @27
    _ZNKSt15__new_allocatorIxE11_M_max_sizeEv @28
    _ZNKSt15__new_allocatorIxE8max_sizeEv @29
    _ZNKSt6vectorIS_IxSaIxEESaIS1_EE12_M_check_lenEyPKc @30
    _ZNKSt6vectorIS_IxSaIxEESaIS1_EE4sizeEv @31
    _ZNKSt6vectorIS_IxSaIxEESaIS1_EE8max_sizeEv @32
    _ZNKSt6vectorISt4pairIS0_IxxES1_ESaIS2_EE12_M_check_lenEyPKc @33
    _ZNKSt6vectorISt4pairIS0_IxxES1_ESaIS2_EE4sizeEv @34
    _ZNKSt6vectorISt4pairIS0_IxxES1_ESaIS2_EE8max_sizeEv @35
    _ZNKSt6vectorISt4pairIxxESaIS1_EE12_M_check_lenEyPKc @36
    _ZNKSt6vectorISt4pairIxxESaIS1_EE4sizeEv @37
    _ZNKSt6vectorISt4pairIxxESaIS1_EE8max_sizeEv @38
    _ZNKSt6vectorIxSaIxEE12_M_check_lenEyPKc @39
    _ZNKSt6vectorIxSaIxEE4sizeEv @40
    _ZNKSt6vectorIxSaIxEE8max_sizeEv @41
    _ZNSaISt4pairIS_IxxES0_EEC2Ev @42
    _ZNSaISt4pairIS_IxxES0_EED2Ev @43
    _ZNSaISt4pairIxxEEC2Ev @44
    _ZNSaISt4pairIxxEED2Ev @45
    _ZNSaISt6vectorIxSaIxEEEC2Ev @46
    _ZNSaISt6vectorIxSaIxEEED2Ev @47
    _ZNSaIxEC2ERKS_ @48
    _ZNSaIxEC2Ev @49
    _ZNSaIxED2Ev @50
    _ZNSt11__copy_moveILb1ELb1ESt26random_access_iterator_tagE8__copy_mIxEEPT_PKS3_S6_S4_ @51
    _ZNSt11char_traitsIcE6lengthEPKc @52
    _ZNSt12_Destroy_auxILb0EE9__destroyIPSt6vectorIxSaIxEEEEvT_S6_ @53
    _ZNSt12_Destroy_auxILb1EE9__destroyIPSt4pairIS2_IxxES3_EEEvT_S6_ @54
    _ZNSt12_Destroy_auxILb1EE9__destroyIPSt4pairIxxEEEvT_S5_ @55
    _ZNSt12_Destroy_auxILb1EE9__destroyIPxEEvT_S3_ @56
    _ZNSt12_Vector_baseISt4pairIS0_IxxES1_ESaIS2_EE11_M_allocateEy @57
    _ZNSt12_Vector_baseISt4pairIS0_IxxES1_ESaIS2_EE12_Vector_implC1Ev @58
    _ZNSt12_Vector_baseISt4pairIS0_IxxES1_ESaIS2_EE12_Vector_implD1Ev @59
    _ZNSt12_Vector_baseISt4pairIS0_IxxES1_ESaIS2_EE13_M_deallocateEPS2_y @60
    _ZNSt12_Vector_baseISt4pairIS0_IxxES1_ESaIS2_EE17_Vector_impl_dataC2Ev @61
    _ZNSt12_Vector_baseISt4pairIS0_IxxES1_ESaIS2_EE19_M_get_Tp_allocatorEv @62
    _ZNSt12_Vector_baseISt4pairIS0_IxxES1_ESaIS2_EEC2Ev @63
    _ZNSt12_Vector_baseISt4pairIS0_IxxES1_ESaIS2_EED2Ev @64
    _ZNSt12_Vector_baseISt4pairIxxESaIS1_EE11_M_allocateEy @65
    _ZNSt12_Vector_baseISt4pairIxxESaIS1_EE12_Vector_implC1Ev @66
    _ZNSt12_Vector_baseISt4pairIxxESaIS1_EE12_Vector_implD1Ev @67
    _ZNSt12_Vector_baseISt4pairIxxESaIS1_EE13_M_deallocateEPS1_y @68
    _ZNSt12_Vector_baseISt4pairIxxESaIS1_EE17_Vector_impl_dataC2Ev @69
    _ZNSt12_Vector_baseISt4pairIxxESaIS1_EE19_M_get_Tp_allocatorEv @70
    _ZNSt12_Vector_baseISt4pairIxxESaIS1_EEC2Ev @71
    _ZNSt12_Vector_baseISt4pairIxxESaIS1_EED2Ev @72
    _ZNSt12_Vector_baseISt6vectorIxSaIxEESaIS2_EE11_M_allocateEy @73
    _ZNSt12_Vector_baseISt6vectorIxSaIxEESaIS2_EE12_Vector_implC1Ev @74
    _ZNSt12_Vector_baseISt6vectorIxSaIxEESaIS2_EE12_Vector_implD1Ev @75
    _ZNSt12_Vector_baseISt6vectorIxSaIxEESaIS2_EE13_M_deallocateEPS2_y @76
    _ZNSt12_Vector_baseISt6vectorIxSaIxEESaIS2_EE17_Vector_impl_dataC2Ev @77
    _ZNSt12_Vector_baseISt6vectorIxSaIxEESaIS2_EE19_M_get_Tp_allocatorEv @78
    _ZNSt12_Vector_baseISt6vectorIxSaIxEESaIS2_EEC2Ev @79
    _ZNSt12_Vector_baseISt6vectorIxSaIxEESaIS2_EED2Ev @80
    _ZNSt12_Vector_baseIxSaIxEE11_M_allocateEy @81
    _ZNSt12_Vector_baseIxSaIxEE12_Vector_implC1EOS2_ @82
    _ZNSt12_Vector_baseIxSaIxEE12_Vector_implC1Ev @83
    _ZNSt12_Vector_baseIxSaIxEE12_Vector_implD1Ev @84
    _ZNSt12_Vector_baseIxSaIxEE13_M_deallocateEPxy @85
    _ZNSt12_Vector_baseIxSaIxEE17_Vector_impl_dataC2EOS2_ @86
    _ZNSt12_Vector_baseIxSaIxEE17_Vector_impl_dataC2Ev @87
    _ZNSt12_Vector_baseIxSaIxEE19_M_get_Tp_allocatorEv @88
    _ZNSt12_Vector_baseIxSaIxEEC2EOS1_ @89
    _ZNSt12_Vector_baseIxSaIxEEC2Ev @90
    _ZNSt12_Vector_baseIxSaIxEED2Ev @91
    _ZNSt13move_iteratorIPSt4pairIxxEEC1ES2_ @92
    _ZNSt13move_iteratorIPSt4pairIxxEEppEv @93
    _ZNSt13move_iteratorIPxEC1ES0_ @94
    _ZNSt15__new_allocatorISt4pairIS0_IxxES1_EE10deallocateEPS2_y @95
    _ZNSt15__new_allocatorISt4pairIS0_IxxES1_EE7destroyIS2_EEvPT_ @96
    _ZNSt15__new_allocatorISt4pairIS0_IxxES1_EE8allocateEyPKv @97
    _ZNSt15__new_allocatorISt4pairIS0_IxxES1_EE9constructIS2_JS2_EEEvPT_DpOT0_ @98
    _ZNSt15__new_allocatorISt4pairIS0_IxxES1_EEC2Ev @99
    _ZNSt15__new_allocatorISt4pairIS0_IxxES1_EED2Ev @100
    _ZNSt15__new_allocatorISt4pairIxxEE10deallocateEPS1_y @101
    _ZNSt15__new_allocatorISt4pairIxxEE7destroyIS1_EEvPT_ @102
    _ZNSt15__new_allocatorISt4pairIxxEE8allocateEyPKv @103
    _ZNSt15__new_allocatorISt4pairIxxEE9constructIS1_JRKS1_EEEvPT_DpOT0_ @104
    _ZNSt15__new_allocatorISt4pairIxxEEC2Ev @105
    _ZNSt15__new_allocatorISt4pairIxxEED2Ev @106
    _ZNSt15__new_allocatorISt6vectorIxSaIxEEE10deallocateEPS2_y @107
    _ZNSt15__new_allocatorISt6vectorIxSaIxEEE7destroyIS2_EEvPT_ @108
    _ZNSt15__new_allocatorISt6vectorIxSaIxEEE8allocateEyPKv @109
    _ZNSt15__new_allocatorISt6vectorIxSaIxEEE9constructIS2_JS2_EEEvPT_DpOT0_ @110
    _ZNSt15__new_allocatorISt6vectorIxSaIxEEEC2Ev @111
    _ZNSt15__new_allocatorISt6vectorIxSaIxEEED2Ev @112
    _ZNSt15__new_allocatorIxE10deallocateEPxy @113
    _ZNSt15__new_allocatorIxE7destroyIxEEvPT_ @114
    _ZNSt15__new_allocatorIxE8allocateEyPKv @115
    _ZNSt15__new_allocatorIxE9constructIxJRKxEEEvPT_DpOT0_ @116
    _ZNSt15__new_allocatorIxEC2ERKS0_ @117
    _ZNSt15__new_allocatorIxEC2Ev @118
    _ZNSt15__new_allocatorIxED2Ev @119
    _ZNSt16allocator_traitsISaISt4pairIS0_IxxES1_EEE10deallocateERS3_PS2_y @120
    _ZNSt16allocator_traitsISaISt4pairIS0_IxxES1_EEE7destroyIS2_EEvRS3_PT_ @121
    _ZNSt16allocator_traitsISaISt4pairIS0_IxxES1_EEE8allocateERS3_y @122
    _ZNSt16allocator_traitsISaISt4pairIS0_IxxES1_EEE8max_sizeERKS3_ @123
    _ZNSt16allocator_traitsISaISt4pairIS0_IxxES1_EEE9constructIS2_JS2_EEEvRS3_PT_DpOT0_ @124
    _ZNSt16allocator_traitsISaISt4pairIxxEEE10deallocateERS2_PS1_y @125
    _ZNSt16allocator_traitsISaISt4pairIxxEEE7destroyIS1_EEvRS2_PT_ @126
    _ZNSt16allocator_traitsISaISt4pairIxxEEE8allocateERS2_y @127
    _ZNSt16allocator_traitsISaISt4pairIxxEEE8max_sizeERKS2_ @128
    _ZNSt16allocator_traitsISaISt4pairIxxEEE9constructIS1_JRKS1_EEEvRS2_PT_DpOT0_ @129
    _ZNSt16allocator_traitsISaISt6vectorIxSaIxEEEE10deallocateERS3_PS2_y @130
    _ZNSt16allocator_traitsISaISt6vectorIxSaIxEEEE7destroyIS2_EEvRS3_PT_ @131
    _ZNSt16allocator_traitsISaISt6vectorIxSaIxEEEE8allocateERS3_y @132
    _ZNSt16allocator_traitsISaISt6vectorIxSaIxEEEE8max_sizeERKS3_ @133
    _ZNSt16allocator_traitsISaISt6vectorIxSaIxEEEE9constructIS2_JS2_EEEvRS3_PT_DpOT0_ @134
    _ZNSt16allocator_traitsISaIcEE37select_on_container_copy_constructionERKS0_ @135
    _ZNSt16allocator_traitsISaIxEE10deallocateERS0_Pxy @136
    _ZNSt16allocator_traitsISaIxEE7destroyIxEEvRS0_PT_ @137
    _ZNSt16allocator_traitsISaIxEE8allocateERS0_y @138
    _ZNSt16allocator_traitsISaIxEE8max_sizeERKS0_ @139
    _ZNSt16allocator_traitsISaIxEE9constructIxJRKxEEEvRS0_PT_DpOT0_ @140
    _ZNSt20__copy_move_backwardILb1ELb0ESt26random_access_iterator_tagE13__copy_move_bIPSt4pairIxxES5_EET0_T_S7_S6_ @141
    _ZNSt20__copy_move_backwardILb1ELb1ESt26random_access_iterator_tagE13__copy_move_bIxEEPT_PKS3_S6_S4_ @142
    _ZNSt20__uninitialized_copyILb0EE13__uninit_copyISt13move_iteratorIPSt4pairIxxEES5_EET0_T_S8_S7_ @143
    _ZNSt20__uninitialized_copyILb1EE13__uninit_copyISt13move_iteratorIPxES3_EET0_T_S6_S5_ @144
    _ZNSt22__uninitialized_fill_nILb0EE15__uninit_fill_nIPSt4pairIxxEyS3_EET_S5_T0_RKT1_ @145
    _ZNSt22__uninitialized_fill_nILb1EE15__uninit_fill_nIPxyxEET_S3_T0_RKT1_ @146
    _ZNSt27__uninitialized_default_n_1ILb0EE18__uninit_default_nIPSt4pairIS2_IxxES3_EyEET_S6_T0_ @147
    _ZNSt27__uninitialized_default_n_1ILb0EE18__uninit_default_nIPSt6vectorIxSaIxEEyEET_S6_T0_ @148
    _ZNSt4pairIS_IxxES0_EC1IS0_S0_Lb1EEERKS0_S4_ @149
    _ZNSt4pairIS_IxxES0_EC1IS0_S0_Lb1EEEv @150
    _ZNSt4pairIS_IxxES0_EaSEOS1_ @151
    _ZNSt4pairIxxEC1IRxS2_Lb1EEEOT_OT0_ @152
    _ZNSt4pairIxxEC1IiiLb1EEEOT_OT0_ @153
    _ZNSt4pairIxxEC1IxxLb1EEEv @154
    _ZNSt4pairIxxEaSEOS0_ @155
    _ZNSt4pairIxxEaSERKS0_ @156
    _ZNSt6vectorIS_IxSaIxEESaIS1_EE11_S_max_sizeERKS2_ @157
    _ZNSt6vectorIS_IxSaIxEESaIS1_EE11_S_relocateEPS1_S4_S4_RS2_ @158
    _ZNSt6vectorIS_IxSaIxEESaIS1_EE15_M_erase_at_endEPS1_ @159
    _ZNSt6vectorIS_IxSaIxEESaIS1_EE17_M_default_appendEy @160
    _ZNSt6vectorIS_IxSaIxEESaIS1_EE6resizeEy @161
    _ZNSt6vectorIS_IxSaIxEESaIS1_EEC1Ev @162
    _ZNSt6vectorIS_IxSaIxEESaIS1_EED1Ev @163
    _ZNSt6vectorIS_IxSaIxEESaIS1_EEixEy @164
    _ZNSt6vectorISt4pairIS0_IxxES1_ESaIS2_EE11_S_max_sizeERKS3_ @165
    _ZNSt6vectorISt4pairIS0_IxxES1_ESaIS2_EE11_S_relocateEPS2_S5_S5_RS3_ @166
    _ZNSt6vectorISt4pairIS0_IxxES1_ESaIS2_EE15_M_erase_at_endEPS2_ @167
    _ZNSt6vectorISt4pairIS0_IxxES1_ESaIS2_EE17_M_default_appendEy @168
    _ZNSt6vectorISt4pairIS0_IxxES1_ESaIS2_EE6resizeEy @169
    _ZNSt6vectorISt4pairIS0_IxxES1_ESaIS2_EEC1Ev @170
    _ZNSt6vectorISt4pairIS0_IxxES1_ESaIS2_EED1Ev @171
    _ZNSt6vectorISt4pairIS0_IxxES1_ESaIS2_EEixEy @172
    _ZNSt6vectorISt4pairIxxESaIS1_EE11_S_max_sizeERKS2_ @173
    _ZNSt6vectorISt4pairIxxESaIS1_EE14_M_fill_insertEN9__gnu_cxx17__normal_iteratorIPS1_S3_EEyRKS1_ @174
    _ZNSt6vectorISt4pairIxxESaIS1_EE15_M_erase_at_endEPS1_ @175
    _ZNSt6vectorISt4pairIxxESaIS1_EE16_Temporary_value6_M_ptrEv @176
    _ZNSt6vectorISt4pairIxxESaIS1_EE16_Temporary_value6_M_valEv @177
    _ZNSt6vectorISt4pairIxxESaIS1_EE16_Temporary_value8_StorageC1Ev @178
    _ZNSt6vectorISt4pairIxxESaIS1_EE16_Temporary_value8_StorageD1Ev @179
    _ZNSt6vectorISt4pairIxxESaIS1_EE16_Temporary_valueC1IJRKS1_EEEPS3_DpOT_ @180
    _ZNSt6vectorISt4pairIxxESaIS1_EE16_Temporary_valueD1Ev @181
    _ZNSt6vectorISt4pairIxxESaIS1_EE3endEv @182
    _ZNSt6vectorISt4pairIxxESaIS1_EE5beginEv @183
    _ZNSt6vectorISt4pairIxxESaIS1_EE6resizeEyRKS1_ @184
    _ZNSt6vectorISt4pairIxxESaIS1_EEC1Ev @185
    _ZNSt6vectorISt4pairIxxESaIS1_EED1Ev @186
    _ZNSt6vectorISt4pairIxxESaIS1_EEixEy @187
    _ZNSt6vectorIxSaIxEE11_S_max_sizeERKS0_ @188
    _ZNSt6vectorIxSaIxEE14_M_fill_insertEN9__gnu_cxx17__normal_iteratorIPxS1_EEyRKx @189
    _ZNSt6vectorIxSaIxEE15_M_erase_at_endEPx @190
    _ZNSt6vectorIxSaIxEE16_Temporary_value6_M_ptrEv @191
    _ZNSt6vectorIxSaIxEE16_Temporary_value6_M_valEv @192
    _ZNSt6vectorIxSaIxEE16_Temporary_value8_StorageC1Ev @193
    _ZNSt6vectorIxSaIxEE16_Temporary_value8_StorageD1Ev @194
    _ZNSt6vectorIxSaIxEE16_Temporary_valueC1IJRKxEEEPS1_DpOT_ @195
    _ZNSt6vectorIxSaIxEE16_Temporary_valueD1Ev @196
    _ZNSt6vectorIxSaIxEE3endEv @197
    _ZNSt6vectorIxSaIxEE5beginEv @198
    _ZNSt6vectorIxSaIxEE6resizeEyRKx @199
    _ZNSt6vectorIxSaIxEEC1EOS1_ @200
    _ZNSt6vectorIxSaIxEEC1Ev @201
    _ZNSt6vectorIxSaIxEED1Ev @202
    _ZNSt6vectorIxSaIxEEixEy @203
    _ZNSt7__cxx1112basic_stringIcSt11char_traitsIcESaIcEE12_Alloc_hiderD1Ev @204
    _ZNSt7__cxx1112basic_stringIcSt11char_traitsIcESaIcEE12_M_constructIPKcEEvT_S8_St20forward_iterator_tag @205
    _ZNSt7__cxx1112basic_stringIcSt11char_traitsIcESaIcEEC1IS3_EEPKcRKS3_ @206
    _ZNSt7__cxx1112basic_stringIcSt11char_traitsIcESaIcEEC1IS3_EEycRKS3_ @207
    _ZNSt7__cxx119to_stringEi @208
    _ZNSt7__cxx119to_stringEx @209
    _ZNSt8__detail14__to_chars_lenIjEEjT_i @210
    _ZNSt8__detail14__to_chars_lenIyEEjT_i @211
    _ZNSt8__detail18__to_chars_10_implIjEEvPcjT_ @212
    _ZNSt8__detail18__to_chars_10_implIyEEvPcjT_ @213
    _ZNSt8ios_base4setfESt13_Ios_FmtflagsS0_ @214
    _ZSt10_ConstructISt4pairIS0_IxxES1_EJEEvPT_DpOT0_ @215
    _ZSt10_ConstructISt4pairIxxEJRKS1_EEvPT_DpOT0_ @216
    _ZSt10_ConstructISt4pairIxxEJS1_EEvPT_DpOT0_ @217
    _ZSt10_ConstructISt6vectorIxSaIxEEJEEvPT_DpOT0_ @218
    _ZSt10__distanceIPKcENSt15iterator_traitsIT_E15difference_typeES3_S3_St26random_access_iterator_tag @219
    _ZSt10__fill_n_aIPxyxET_S1_T0_RKT1_St26random_access_iterator_tag @220
    _ZSt11__addressofISt4pairIS0_IxxES1_EEPT_RS3_ @221
    _ZSt11__addressofISt4pairIxxEEPT_RS2_ @222
    _ZSt11__addressofISt6vectorIxSaIxEEEPT_RS3_ @223
    _ZSt11__addressofIxEPT_RS0_ @224
    _ZSt12__miter_baseIPSt4pairIxxEET_S3_ @225
    _ZSt12__miter_baseIPxEDTcl12__miter_basecldtfp_4baseEEESt13move_iteratorIT_E @226
    _ZSt12__miter_baseIPxET_S1_ @227
    _ZSt12__niter_baseIPSt4pairIS0_IxxES1_EET_S4_ @228
    _ZSt12__niter_baseIPSt4pairIxxEET_S3_ @229
    _ZSt12__niter_baseIPSt6vectorIxSaIxEEET_S4_ @230
    _ZSt12__niter_baseIPxET_S1_ @231
    _ZSt12__niter_wrapIPSt4pairIxxEET_RKS3_S3_ @232
    _ZSt12__niter_wrapIPxET_RKS1_S1_ @233
    _ZSt12__relocate_aIPSt4pairIS0_IxxES1_ES3_SaIS2_EET0_T_S6_S5_RT1_ @234
    _ZSt12__relocate_aIPSt6vectorIxSaIxEES3_SaIS2_EET0_T_S6_S5_RT1_ @235
    _ZSt12setprecisioni @236
    _ZSt13__copy_move_aILb1EPxS0_ET1_T0_S2_S1_ @237
    _ZSt13move_backwardIPSt4pairIxxES2_ET0_T_S4_S3_ @238
    _ZSt13move_backwardIPxS0_ET0_T_S2_S1_ @239
    _ZSt14__copy_move_a1ILb1EPxS0_ET1_T0_S2_S1_ @240
    _ZSt14__copy_move_a2ILb1EPxS0_ET1_T0_S2_S1_ @241
    _ZSt14__relocate_a_1IPSt4pairIS0_IxxES1_ES3_SaIS2_EET0_T_S6_S5_RT1_ @242
    _ZSt14__relocate_a_1IPSt6vectorIxSaIxEES3_SaIS2_EET0_T_S6_S5_RT1_ @243
    _ZSt16__do_uninit_copyISt13move_iteratorIPSt4pairIxxEES3_ET0_T_S6_S5_ @244
    _ZSt17__size_to_integery @245
    _ZSt18__do_uninit_fill_nIPSt4pairIxxEyS1_ET_S3_T0_RKT1_ @246
    _ZSt18make_move_iteratorIPSt4pairIxxEESt13move_iteratorIT_ES4_ @247
    _ZSt18make_move_iteratorIPxESt13move_iteratorIT_ES2_ @248
    _ZSt18uninitialized_copyISt13move_iteratorIPSt4pairIxxEES3_ET0_T_S6_S5_ @249
    _ZSt18uninitialized_copyISt13move_iteratorIPxES1_ET0_T_S4_S3_ @250
    _ZSt19__iterator_categoryIPKcENSt15iterator_traitsIT_E17iterator_categoryERKS3_ @251
    _ZSt19__iterator_categoryIPxENSt15iterator_traitsIT_E17iterator_categoryERKS2_ @252
    _ZSt19__relocate_object_aISt4pairIS0_IxxES1_ES2_SaIS2_EEvPT_PT0_RT1_ @253
    _ZSt19__relocate_object_aISt6vectorIxSaIxEES2_SaIS2_EEvPT_PT0_RT1_ @254
    _ZSt20uninitialized_fill_nIPSt4pairIxxEyS1_ET_S3_T0_RKT1_ @255
    _ZSt20uninitialized_fill_nIPxyxET_S1_T0_RKT1_ @256
    _ZSt22__copy_move_backward_aILb1EPSt4pairIxxES2_ET1_T0_S4_S3_ @257
    _ZSt22__copy_move_backward_aILb1EPxS0_ET1_T0_S2_S1_ @258
    _ZSt22__uninitialized_copy_aISt13move_iteratorIPSt4pairIxxEES3_S2_ET0_T_S6_S5_RSaIT1_E @259
    _ZSt22__uninitialized_copy_aISt13move_iteratorIPxES1_xET0_T_S4_S3_RSaIT1_E @260
    _ZSt22__uninitialized_move_aIPSt4pairIxxES2_SaIS1_EET0_T_S5_S4_RT1_ @261
    _ZSt22__uninitialized_move_aIPxS0_SaIxEET0_T_S3_S2_RT1_ @262
    _ZSt23__copy_move_backward_a1ILb1EPSt4pairIxxES2_ET1_T0_S4_S3_ @263
    _ZSt23__copy_move_backward_a1ILb1EPxS0_ET1_T0_S2_S1_ @264
    _ZSt23__copy_move_backward_a2ILb1EPSt4pairIxxES2_ET1_T0_S4_S3_ @265
    _ZSt23__copy_move_backward_a2ILb1EPxS0_ET1_T0_S2_S1_ @266
    _ZSt23__is_constant_evaluatedv @267
    _ZSt24__uninitialized_fill_n_aIPSt4pairIxxEyS1_S1_ET_S3_T0_RKT1_RSaIT2_E @268
    _ZSt24__uninitialized_fill_n_aIPxyxxET_S1_T0_RKT1_RSaIT2_E @269
    _ZSt25__uninitialized_default_nIPSt4pairIS0_IxxES1_EyET_S4_T0_ @270
    _ZSt25__uninitialized_default_nIPSt6vectorIxSaIxEEyET_S4_T0_ @271
    _ZSt27__uninitialized_default_n_aIPSt4pairIS0_IxxES1_EyS2_ET_S4_T0_RSaIT1_E @272
    _ZSt27__uninitialized_default_n_aIPSt6vectorIxSaIxEEyS2_ET_S4_T0_RSaIT1_E @273
    _ZSt32__make_move_if_noexcept_iteratorISt4pairIxxESt13move_iteratorIPS1_EET0_PT_ @274
    _ZSt32__make_move_if_noexcept_iteratorIxSt13move_iteratorIPxEET0_PT_ @275
    _ZSt34__uninitialized_move_if_noexcept_aIPSt4pairIxxES2_SaIS1_EET0_T_S5_S4_RT1_ @276
    _ZSt34__uninitialized_move_if_noexcept_aIPxS0_SaIxEET0_T_S3_S2_RT1_ @277
    _ZSt3maxIyERKT_S2_S2_ @278
    _ZSt3minIiERKT_S2_S2_ @279
    _ZSt3minIxERKT_S2_S2_ @280
    _ZSt3minIyERKT_S2_S2_ @281
    _ZSt4copyISt13move_iteratorIPxES1_ET0_T_S4_S3_ @282
    _ZSt4fillIPSt4pairIxxES1_EvT_S3_RKT0_ @283
    _ZSt4fillIPxxEvT_S1_RKT0_ @284
    _ZSt4moveIRNSt12_Vector_baseIxSaIxEE12_Vector_implEEONSt16remove_referenceIT_E4typeEOS6_ @285
    _ZSt4moveIRNSt7__cxx1112basic_stringIcSt11char_traitsIcESaIcEEEEONSt16remove_referenceIT_E4typeEOS8_ @286
    _ZSt4moveIRPSt4pairIxxEEONSt16remove_referenceIT_E4typeEOS5_ @287
    _ZSt4moveIRPxEONSt16remove_referenceIT_E4typeEOS3_ @288
    _ZSt4moveIRSt4pairIS0_IxxES1_EEONSt16remove_referenceIT_E4typeEOS5_ @289
    _ZSt4moveIRSt4pairIxxEEONSt16remove_referenceIT_E4typeEOS4_ @290
    _ZSt4moveIRSt6vectorIxSaIxEEEONSt16remove_referenceIT_E4typeEOS5_ @291
    _ZSt5fixedRSt8ios_base @292
    _ZSt5rounde @293
    _ZSt6fill_nIPxyxET_S1_T0_RKT1_ @294
    _ZSt7forwardIRKSt4pairIxxEEOT_RNSt16remove_referenceIS4_E4typeE @295
    _ZSt7forwardIRKxEOT_RNSt16remove_referenceIS2_E4typeE @296
    _ZSt7forwardIRxEOT_RNSt16remove_referenceIS1_E4typeE @297
    _ZSt7forwardISt4pairIS0_IxxES1_EEOT_RNSt16remove_referenceIS3_E4typeE @298
    _ZSt7forwardISt4pairIxxEEOT_RNSt16remove_referenceIS2_E4typeE @299
    _ZSt7forwardISt6vectorIxSaIxEEEOT_RNSt16remove_referenceIS3_E4typeE @300
    _ZSt7forwardIiEOT_RNSt16remove_referenceIS0_E4typeE @301
    _ZSt7forwardIxEOT_RNSt16remove_referenceIS0_E4typeE @302
    _ZSt8_DestroyIPSt4pairIS0_IxxES1_EEvT_S4_ @303
    _ZSt8_DestroyIPSt4pairIS0_IxxES1_ES2_EvT_S4_RSaIT0_E @304
    _ZSt8_DestroyIPSt4pairIxxEEvT_S3_ @305
    _ZSt8_DestroyIPSt4pairIxxES1_EvT_S3_RSaIT0_E @306
    _ZSt8_DestroyIPSt6vectorIxSaIxEEEvT_S4_ @307
    _ZSt8_DestroyIPSt6vectorIxSaIxEES2_EvT_S4_RSaIT0_E @308
    _ZSt8_DestroyIPxEvT_S1_ @309
    _ZSt8_DestroyIPxxEvT_S1_RSaIT0_E @310
    _ZSt8_DestroyISt6vectorIxSaIxEEEvPT_ @311
    _ZSt8__fill_aIPSt4pairIxxES1_EvT_S3_RKT0_ @312
    _ZSt8__fill_aIPxxEvT_S1_RKT0_ @313
    _ZSt8distanceIPKcENSt15iterator_traitsIT_E15difference_typeES3_S3_ @314
    _ZSt9__fill_a1IPSt4pairIxxES1_EN9__gnu_cxx11__enable_ifIXntsrSt11__is_scalarIT0_E7__valueEvE6__typeET_SA_RKS6_ @315
    _ZSt9__fill_a1IPxxEN9__gnu_cxx11__enable_ifIXsrSt11__is_scalarIT0_E7__valueEvE6__typeET_S8_RKS4_ @316
    _ZStaNRSt13_Ios_FmtflagsS_ @317
    _ZStanSt13_Ios_FmtflagsS_ @318
    _ZStcoSt13_Ios_Fmtflags @319
    _ZSteqIPSt4pairIxxEEbRKSt13move_iteratorIT_ES7_ @320
    _ZStneIPSt4pairIxxEEbRKSt13move_iteratorIT_ES7_ @321
    _ZStoRRSt13_Ios_FmtflagsS_ @322
    _ZStorSt13_Ios_FmtflagsS_ @323
    _ZStplIcSt11char_traitsIcESaIcEENSt7__cxx1112basic_stringIT_T0_T1_EEOS8_PKS5_ @324
    _ZStplIcSt11char_traitsIcESaIcEENSt7__cxx1112basic_stringIT_T0_T1_EEOS8_RKS8_ @325
    _ZStplIcSt11char_traitsIcESaIcEENSt7__cxx1112basic_stringIT_T0_T1_EEOS8_S9_ @326
    _ZStplIcSt11char_traitsIcESaIcEENSt7__cxx1112basic_stringIT_T0_T1_EEPKS5_OS8_ @327
    _ZStplIcSt11char_traitsIcESaIcEENSt7__cxx1112basic_stringIT_T0_T1_EEPKS5_RKS8_ @328
    _ZZNSt7__cxx1112basic_stringIcSt11char_traitsIcESaIcEE12_M_constructIPKcEEvT_S8_St20forward_iterator_tagEN6_GuardC1EPS4_ @329
    _ZZNSt7__cxx1112basic_stringIcSt11char_traitsIcESaIcEE12_M_constructIPKcEEvT_S8_St20forward_iterator_tagEN6_GuardD1Ev @330
    _ZZNSt8__detail18__to_chars_10_implIjEEvPcjT_E8__digits @331 DATA
    _ZZNSt8__detail18__to_chars_10_implIyEEvPcjT_E8__digits @332 DATA
    _ZdlPvS_ @333
    _ZnwyPv @334
    add @335 DATA
    calc_points @336
    diag @337 DATA
    done_threads @338 DATA
    dwThreadIdArray @339 DATA
    ghSemaphore @340 DATA
    hCriticalSection @341 DATA
    hMutex @342 DATA
    hThreadArray @343 DATA
    high_priority_thread @344 DATA
    k @345 DATA
    low_priority_thread @346 DATA
    m @347 DATA
    main @348
    max_number @349 DATA
    n @350 DATA
    needThreads @351 DATA
    pDataArray @352 DATA
    points_for_diag @353 DATA
    print @354
    read @355
    runTask @356
    solve @357
    stackTh @358 DATA
    threadTime @359 DATA
    type_of_task @360 DATA
